target datalayout = "e-m:e-p270:32:32-p271:32:32-p272:64:64-i64:64-i128:128-f80:128-n8:16:32:64-S128"
target triple = "x86_64-pc-linux-gnu"

%"class.sat::literal" = type { i32 }
%class.svector.26 = type { %class.vector.27 }
%class.vector.27 = type { ptr }
%"class.sat::model_converter::entry" = type { i32, i32, %class.svector.26, %class.svector.26, %class.ref_vector_core }
%class.ref_vector_core = type { %class.ptr_vector.50 }
%class.ptr_vector.50 = type { %class.vector.51 }
%class.vector.51 = type { ptr }

; Function Attrs: mustprogress uwtable
define linkonce_odr hidden noundef nonnull align 8 dereferenceable(8) ptr @_ZN6vectorIN3sat7literalELb0EjE9push_backERKS1_(ptr noundef nonnull align 8 dereferenceable(8) %0, ptr noundef nonnull align 4 dereferenceable(4) %1) #4 comdat align 2 {
  %3 = alloca ptr, align 8
  %4 = alloca ptr, align 8
  store ptr %0, ptr %3, align 8, !tbaa !192
  store ptr %1, ptr %4, align 8, !tbaa !195
  %5 = load ptr, ptr %3, align 8
  %6 = getelementptr inbounds nuw %class.vector.27, ptr %5, i32 0, i32 0
  %7 = load ptr, ptr %6, align 8, !tbaa !194
  %8 = icmp eq ptr %7, null
  br i1 %8, label %19, label %9

9:                                                ; preds = %2
  %10 = getelementptr inbounds nuw %class.vector.27, ptr %5, i32 0, i32 0
  %11 = load ptr, ptr %10, align 8, !tbaa !194
  %12 = getelementptr inbounds i32, ptr %11, i64 -1
  %13 = load i32, ptr %12, align 4, !tbaa !20
  %14 = getelementptr inbounds nuw %class.vector.27, ptr %5, i32 0, i32 0
  %15 = load ptr, ptr %14, align 8, !tbaa !194
  %16 = getelementptr inbounds i32, ptr %15, i64 -2
  %17 = load i32, ptr %16, align 4, !tbaa !20
  %18 = icmp eq i32 %13, %17
  br i1 %18, label %19, label %20

19:                                               ; preds = %9, %2
  call void @_ZN6vectorIN3sat7literalELb0EjE13expand_vectorEv(ptr noundef nonnull align 8 dereferenceable(8) %5)
  br label %20

20:                                               ; preds = %19, %9
  %21 = getelementptr inbounds nuw %class.vector.27, ptr %5, i32 0, i32 0
  %22 = load ptr, ptr %21, align 8, !tbaa !194
  %23 = getelementptr inbounds nuw %class.vector.27, ptr %5, i32 0, i32 0
  %24 = load ptr, ptr %23, align 8, !tbaa !194
  %25 = getelementptr inbounds i32, ptr %24, i64 -1
  %26 = load i32, ptr %25, align 4, !tbaa !20
  %27 = zext i32 %26 to i64
  %28 = getelementptr inbounds nuw %"class.sat::literal", ptr %22, i64 %27
  %29 = load ptr, ptr %4, align 8, !tbaa !195
  call void @llvm.memcpy.p0.p0.i64(ptr align 4 %28, ptr align 4 %29, i64 4, i1 false), !tbaa.struct !183
  %30 = getelementptr inbounds nuw %class.vector.27, ptr %5, i32 0, i32 0
  %31 = load ptr, ptr %30, align 8, !tbaa !194
  %32 = getelementptr inbounds i32, ptr %31, i64 -1
  %33 = load i32, ptr %32, align 4, !tbaa !20
  %34 = add i32 %33, 1
  store i32 %34, ptr %32, align 4, !tbaa !20
  ret ptr %5
}

; Function Attrs: mustprogress uwtable
define hidden void @_ZN3sat15model_converter10set_clauseERNS0_5entryENS_7literalES3_(ptr noundef nonnull align 8 dereferenceable(40) %0, ptr noundef nonnull align 8 dereferenceable(32) %1, i32 %2, i32 %3) #4 align 2 {
  %5 = alloca %"class.sat::literal", align 4
  %6 = alloca %"class.sat::literal", align 4
  %7 = alloca ptr, align 8
  %8 = alloca ptr, align 8
  %9 = getelementptr inbounds nuw %"class.sat::literal", ptr %5, i32 0, i32 0
  store i32 %2, ptr %9, align 4
  %10 = getelementptr inbounds nuw %"class.sat::literal", ptr %6, i32 0, i32 0
  store i32 %3, ptr %10, align 4
  store ptr %0, ptr %7, align 8, !tbaa !3
  store ptr %1, ptr %8, align 8, !tbaa !200
  %11 = load ptr, ptr %8, align 8, !tbaa !200
  %12 = getelementptr inbounds nuw %"class.sat::model_converter::entry", ptr %11, i32 0, i32 3
  %13 = call noundef nonnull align 8 dereferenceable(8) ptr @_ZN6vectorIN3sat7literalELb0EjE9push_backERKS1_(ptr noundef nonnull align 8 dereferenceable(8) %12, ptr noundef nonnull align 4 dereferenceable(4) %5)
  %14 = load ptr, ptr %8, align 8, !tbaa !200
  %15 = getelementptr inbounds nuw %"class.sat::model_converter::entry", ptr %14, i32 0, i32 3
  %16 = call noundef nonnull align 8 dereferenceable(8) ptr @_ZN6vectorIN3sat7literalELb0EjE9push_backERKS1_(ptr noundef nonnull align 8 dereferenceable(8) %15, ptr noundef nonnull align 4 dereferenceable(4) %6)
  ret void
}