; Function Attrs: mustprogress uwtable
define hidden void @_ZN3sat15model_converter10set_clauseERNS0_5entryENS_7literalES3_(ptr noundef nonnull readnone align 8 captures(none) dereferenceable(40) %0, ptr noundef nonnull align 8 dereferenceable(32) %1, i32 %2, i32 %3) local_unnamed_addr #3 align 2 {
  %5 = getelementptr inbounds nuw i8, ptr %1, i64 16
  %6 = load ptr, ptr %5, align 8, !tbaa !11
  %7 = icmp eq ptr %6, null
  br i1 %7, label %14, label %8

8:                                                ; preds = %4
  %9 = getelementptr inbounds i8, ptr %6, i64 -4
  %10 = load i32, ptr %9, align 4, !tbaa !9
  %11 = getelementptr inbounds i8, ptr %6, i64 -8
  %12 = load i32, ptr %11, align 4, !tbaa !9
  %13 = icmp eq i32 %10, %12
  br i1 %13, label %14, label %15

14:                                               ; preds = %8, %4
  tail call void @_ZN6vectorIN3sat7literalELb0EjE13expand_vectorEv(ptr noundef nonnull align 8 dereferenceable(8) %5)
  %.pre.i = load ptr, ptr %5, align 8, !tbaa !11
  %.phi.trans.insert.i = getelementptr inbounds i8, ptr %.pre.i, i64 -4
  %.pre2.i = load i32, ptr %.phi.trans.insert.i, align 4, !tbaa !9
  br label %15

15:                                               ; preds = %14, %8
  %16 = phi i32 [ %.pre2.i, %14 ], [ %10, %8 ]
  %17 = phi ptr [ %.pre.i, %14 ], [ %6, %8 ]
  %18 = getelementptr inbounds i8, ptr %17, i64 -4
  %19 = zext i32 %16 to i64
  %20 = getelementptr inbounds nuw %"class.sat::literal", ptr %17, i64 %19
  store i32 %2, ptr %20, align 4, !tbaa !9
  %21 = add i32 %16, 1
  store i32 %21, ptr %18, align 4, !tbaa !9
  %22 = getelementptr inbounds i8, ptr %17, i64 -8
  %23 = load i32, ptr %22, align 4, !tbaa !9
  %24 = icmp eq i32 %21, %23
  br i1 %24, label %25, label %_ZN6vectorIN3sat7literalELb0EjE9push_backERKS1_.exit5

25:                                               ; preds = %15
  tail call void @_ZN6vectorIN3sat7literalELb0EjE13expand_vectorEv(ptr noundef nonnull align 8 dereferenceable(8) %5)
  %.pre.i2 = load ptr, ptr %5, align 8, !tbaa !11
  %.phi.trans.insert.i3 = getelementptr inbounds i8, ptr %.pre.i2, i64 -4
  %.pre2.i4 = load i32, ptr %.phi.trans.insert.i3, align 4, !tbaa !9
  br label %_ZN6vectorIN3sat7literalELb0EjE9push_backERKS1_.exit5

_ZN6vectorIN3sat7literalELb0EjE9push_backERKS1_.exit5: ; preds = %15, %25
  %26 = phi i32 [ %.pre2.i4, %25 ], [ %21, %15 ]
  %27 = phi ptr [ %.pre.i2, %25 ], [ %17, %15 ]
  %28 = getelementptr inbounds i8, ptr %27, i64 -4
  %29 = zext i32 %26 to i64
  %30 = getelementptr inbounds nuw %"class.sat::literal", ptr %27, i64 %29
  store i32 %3, ptr %30, align 4, !tbaa !9
  %31 = add i32 %26, 1
  store i32 %31, ptr %28, align 4, !tbaa !9
  ret void
}